target datalayout = "e-m:e-p270:32:32-p271:32:32-p272:64:64-i64:64-i128:128-f80:128-n8:16:32:64-S128"
target triple = "x86_64-pc-linux-gnu"

%struct.extstore_stats = type { i64, i64, i64, i64, i64, i64, i64, i64, i64, i64, i64, i64, i64, i64, i64, i64, i64, ptr }
%struct.extstore_page_data = type { i64, i64, i32, i32, i8 }

@ext_storage = external global ptr, align 8
@.str = private unnamed_addr constant [6 x i8] c"%d:%s\00", align 1
@.str.1 = private unnamed_addr constant [8 x i8] c"version\00", align 1
@.str.2 = private unnamed_addr constant [5 x i8] c"%llu\00", align 1
@.str.3 = private unnamed_addr constant [6 x i8] c"bytes\00", align 1
@.str.4 = private unnamed_addr constant [7 x i8] c"bucket\00", align 1
@.str.5 = private unnamed_addr constant [3 x i8] c"%u\00", align 1
@.str.6 = private unnamed_addr constant [12 x i8] c"free_bucket\00", align 1

; Function Attrs: nounwind uwtable
define dso_local void @process_extstore_stats(ptr noundef %0, ptr noundef %1) #0 {
  %3 = alloca ptr, align 8
  %4 = alloca ptr, align 8
  %5 = alloca i32, align 4
  %6 = alloca [128 x i8], align 16
  %7 = alloca [128 x i8], align 16
  %8 = alloca i32, align 4
  %9 = alloca i32, align 4
  %10 = alloca %struct.extstore_stats, align 8
  %11 = alloca ptr, align 8
  %12 = alloca i32, align 4
  store ptr %0, ptr %3, align 8, !tbaa !4
  store ptr %1, ptr %4, align 8, !tbaa !4
  call void @llvm.lifetime.start.p0(i64 4, ptr %5) #13
  call void @llvm.lifetime.start.p0(i64 128, ptr %6) #13
  call void @llvm.lifetime.start.p0(i64 128, ptr %7) #13
  call void @llvm.lifetime.start.p0(i64 4, ptr %8) #13
  store i32 0, ptr %8, align 4, !tbaa !17
  call void @llvm.lifetime.start.p0(i64 4, ptr %9) #13
  store i32 0, ptr %9, align 4, !tbaa !17
  call void @llvm.lifetime.start.p0(i64 144, ptr %10) #13
  call void @llvm.lifetime.start.p0(i64 8, ptr %11) #13
  %13 = load ptr, ptr @ext_storage, align 8, !tbaa !4
  store ptr %13, ptr %11, align 8, !tbaa !4
  %14 = load ptr, ptr %11, align 8, !tbaa !4
  %15 = icmp eq ptr %14, null
  br i1 %15, label %16, label %17

16:                                               ; preds = %2
  store i32 1, ptr %12, align 4
  br label %113

17:                                               ; preds = %2
  %18 = load ptr, ptr %11, align 8, !tbaa !4
  call void @extstore_get_stats(ptr noundef %18, ptr noundef %10)
  %19 = getelementptr inbounds nuw %struct.extstore_stats, ptr %10, i32 0, i32 1
  %20 = load i64, ptr %19, align 8, !tbaa !18
  %21 = call noalias ptr @calloc(i64 noundef %20, i64 noundef 32) #14
  %22 = getelementptr inbounds nuw %struct.extstore_stats, ptr %10, i32 0, i32 17
  store ptr %21, ptr %22, align 8, !tbaa !22
  %23 = load ptr, ptr %11, align 8, !tbaa !4
  call void @extstore_get_page_data(ptr noundef %23, ptr noundef %10)
  store i32 0, ptr %5, align 4, !tbaa !17
  br label %24

24:                                               ; preds = %107, %17
  %25 = load i32, ptr %5, align 4, !tbaa !17
  %26 = sext i32 %25 to i64
  %27 = getelementptr inbounds nuw %struct.extstore_stats, ptr %10, i32 0, i32 1
  %28 = load i64, ptr %27, align 8, !tbaa !18
  %29 = icmp ult i64 %26, %28
  br i1 %29, label %30, label %110

30:                                               ; preds = %24
  %31 = getelementptr inbounds [128 x i8], ptr %6, i64 0, i64 0
  %32 = load i32, ptr %5, align 4, !tbaa !17
  %33 = call i32 (ptr, i64, ptr, ...) @snprintf(ptr noundef %31, i64 noundef 128, ptr noundef @.str, i32 noundef %32, ptr noundef @.str.1) #13
  store i32 %33, ptr %8, align 4, !tbaa !17
  %34 = getelementptr inbounds [128 x i8], ptr %7, i64 0, i64 0
  %35 = getelementptr inbounds nuw %struct.extstore_stats, ptr %10, i32 0, i32 17
  %36 = load ptr, ptr %35, align 8, !tbaa !22
  %37 = load i32, ptr %5, align 4, !tbaa !17
  %38 = sext i32 %37 to i64
  %39 = getelementptr inbounds %struct.extstore_page_data, ptr %36, i64 %38
  %40 = getelementptr inbounds nuw %struct.extstore_page_data, ptr %39, i32 0, i32 0
  %41 = load i64, ptr %40, align 8, !tbaa !23
  %42 = call i32 (ptr, i64, ptr, ...) @snprintf(ptr noundef %34, i64 noundef 128, ptr noundef @.str.2, i64 noundef %41) #13
  store i32 %42, ptr %9, align 4, !tbaa !17
  %43 = load ptr, ptr %3, align 8, !tbaa !4
  %44 = getelementptr inbounds [128 x i8], ptr %6, i64 0, i64 0
  %45 = load i32, ptr %8, align 4, !tbaa !17
  %46 = trunc i32 %45 to i16
  %47 = getelementptr inbounds [128 x i8], ptr %7, i64 0, i64 0
  %48 = load i32, ptr %9, align 4, !tbaa !17
  %49 = load ptr, ptr %4, align 8, !tbaa !4
  call void %43(ptr noundef %44, i16 noundef zeroext %46, ptr noundef %47, i32 noundef %48, ptr noundef %49)
  %50 = getelementptr inbounds [128 x i8], ptr %6, i64 0, i64 0
  %51 = load i32, ptr %5, align 4, !tbaa !17
  %52 = call i32 (ptr, i64, ptr, ...) @snprintf(ptr noundef %50, i64 noundef 128, ptr noundef @.str, i32 noundef %51, ptr noundef @.str.3) #13
  store i32 %52, ptr %8, align 4, !tbaa !17
  %53 = getelementptr inbounds [128 x i8], ptr %7, i64 0, i64 0
  %54 = getelementptr inbounds nuw %struct.extstore_stats, ptr %10, i32 0, i32 17
  %55 = load ptr, ptr %54, align 8, !tbaa !22
  %56 = load i32, ptr %5, align 4, !tbaa !17
  %57 = sext i32 %56 to i64
  %58 = getelementptr inbounds %struct.extstore_page_data, ptr %55, i64 %57
  %59 = getelementptr inbounds nuw %struct.extstore_page_data, ptr %58, i32 0, i32 1
  %60 = load i64, ptr %59, align 8, !tbaa !26
  %61 = call i32 (ptr, i64, ptr, ...) @snprintf(ptr noundef %53, i64 noundef 128, ptr noundef @.str.2, i64 noundef %60) #13
  store i32 %61, ptr %9, align 4, !tbaa !17
  %62 = load ptr, ptr %3, align 8, !tbaa !4
  %63 = getelementptr inbounds [128 x i8], ptr %6, i64 0, i64 0
  %64 = load i32, ptr %8, align 4, !tbaa !17
  %65 = trunc i32 %64 to i16
  %66 = getelementptr inbounds [128 x i8], ptr %7, i64 0, i64 0
  %67 = load i32, ptr %9, align 4, !tbaa !17
  %68 = load ptr, ptr %4, align 8, !tbaa !4
  call void %62(ptr noundef %63, i16 noundef zeroext %65, ptr noundef %66, i32 noundef %67, ptr noundef %68)
  %69 = getelementptr inbounds [128 x i8], ptr %6, i64 0, i64 0
  %70 = load i32, ptr %5, align 4, !tbaa !17
  %71 = call i32 (ptr, i64, ptr, ...) @snprintf(ptr noundef %69, i64 noundef 128, ptr noundef @.str, i32 noundef %70, ptr noundef @.str.4) #13
  store i32 %71, ptr %8, align 4, !tbaa !17
  %72 = getelementptr inbounds [128 x i8], ptr %7, i64 0, i64 0
  %73 = getelementptr inbounds nuw %struct.extstore_stats, ptr %10, i32 0, i32 17
  %74 = load ptr, ptr %73, align 8, !tbaa !22
  %75 = load i32, ptr %5, align 4, !tbaa !17
  %76 = sext i32 %75 to i64
  %77 = getelementptr inbounds %struct.extstore_page_data, ptr %74, i64 %76
  %78 = getelementptr inbounds nuw %struct.extstore_page_data, ptr %77, i32 0, i32 2
  %79 = load i32, ptr %78, align 8, !tbaa !27
  %80 = call i32 (ptr, i64, ptr, ...) @snprintf(ptr noundef %72, i64 noundef 128, ptr noundef @.str.5, i32 noundef %79) #13
  store i32 %80, ptr %9, align 4, !tbaa !17
  %81 = load ptr, ptr %3, align 8, !tbaa !4
  %82 = getelementptr inbounds [128 x i8], ptr %6, i64 0, i64 0
  %83 = load i32, ptr %8, align 4, !tbaa !17
  %84 = trunc i32 %83 to i16
  %85 = getelementptr inbounds [128 x i8], ptr %7, i64 0, i64 0
  %86 = load i32, ptr %9, align 4, !tbaa !17
  %87 = load ptr, ptr %4, align 8, !tbaa !4
  call void %81(ptr noundef %82, i16 noundef zeroext %84, ptr noundef %85, i32 noundef %86, ptr noundef %87)
  %88 = getelementptr inbounds [128 x i8], ptr %6, i64 0, i64 0
  %89 = load i32, ptr %5, align 4, !tbaa !17
  %90 = call i32 (ptr, i64, ptr, ...) @snprintf(ptr noundef %88, i64 noundef 128, ptr noundef @.str, i32 noundef %89, ptr noundef @.str.6) #13
  store i32 %90, ptr %8, align 4, !tbaa !17
  %91 = getelementptr inbounds [128 x i8], ptr %7, i64 0, i64 0
  %92 = getelementptr inbounds nuw %struct.extstore_stats, ptr %10, i32 0, i32 17
  %93 = load ptr, ptr %92, align 8, !tbaa !22
  %94 = load i32, ptr %5, align 4, !tbaa !17
  %95 = sext i32 %94 to i64
  %96 = getelementptr inbounds %struct.extstore_page_data, ptr %93, i64 %95
  %97 = getelementptr inbounds nuw %struct.extstore_page_data, ptr %96, i32 0, i32 3
  %98 = load i32, ptr %97, align 4, !tbaa !28
  %99 = call i32 (ptr, i64, ptr, ...) @snprintf(ptr noundef %91, i64 noundef 128, ptr noundef @.str.5, i32 noundef %98) #13
  store i32 %99, ptr %9, align 4, !tbaa !17
  %100 = load ptr, ptr %3, align 8, !tbaa !4
  %101 = getelementptr inbounds [128 x i8], ptr %6, i64 0, i64 0
  %102 = load i32, ptr %8, align 4, !tbaa !17
  %103 = trunc i32 %102 to i16
  %104 = getelementptr inbounds [128 x i8], ptr %7, i64 0, i64 0
  %105 = load i32, ptr %9, align 4, !tbaa !17
  %106 = load ptr, ptr %4, align 8, !tbaa !4
  call void %100(ptr noundef %101, i16 noundef zeroext %103, ptr noundef %104, i32 noundef %105, ptr noundef %106)
  br label %107

107:                                              ; preds = %30
  %108 = load i32, ptr %5, align 4, !tbaa !17
  %109 = add nsw i32 %108, 1
  store i32 %109, ptr %5, align 4, !tbaa !17
  br label %24, !llvm.loop !29

110:                                              ; preds = %24
  %111 = getelementptr inbounds nuw %struct.extstore_stats, ptr %10, i32 0, i32 17
  %112 = load ptr, ptr %111, align 8, !tbaa !22
  call void @free(ptr noundef %112) #13
  store i32 0, ptr %12, align 4
  br label %113

113:                                              ; preds = %110, %16
  call void @llvm.lifetime.end.p0(i64 8, ptr %11) #13
  call void @llvm.lifetime.end.p0(i64 144, ptr %10) #13
  call void @llvm.lifetime.end.p0(i64 4, ptr %9) #13
  call void @llvm.lifetime.end.p0(i64 4, ptr %8) #13
  call void @llvm.lifetime.end.p0(i64 128, ptr %7) #13
  call void @llvm.lifetime.end.p0(i64 128, ptr %6) #13
  call void @llvm.lifetime.end.p0(i64 4, ptr %5) #13
  %114 = load i32, ptr %12, align 4
  switch i32 %114, label %116 [
    i32 0, label %115
    i32 1, label %115
  ]

115:                                              ; preds = %113, %113
  ret void

116:                                              ; preds = %113
  unreachable
}