; Function Attrs: nounwind uwtable
define dso_local void @process_extstore_stats(ptr noundef readonly captures(none) %0, ptr noundef %1) local_unnamed_addr #0 {
  %3 = alloca [128 x i8], align 16
  %4 = alloca [128 x i8], align 16
  %5 = alloca %struct.extstore_stats, align 8
  call void @llvm.lifetime.start.p0(i64 128, ptr nonnull %3) #21
  call void @llvm.lifetime.start.p0(i64 128, ptr nonnull %4) #21
  call void @llvm.lifetime.start.p0(i64 144, ptr nonnull %5) #21
  %6 = load ptr, ptr @ext_storage, align 8, !tbaa !14
  %7 = icmp eq ptr %6, null
  br i1 %7, label %42, label %8

8:                                                ; preds = %2
  call void @extstore_get_stats(ptr noundef nonnull %6, ptr noundef nonnull %5) #21
  %9 = getelementptr inbounds nuw i8, ptr %5, i64 8
  %10 = load i64, ptr %9, align 8, !tbaa !16
  %11 = call noalias ptr @calloc(i64 noundef %10, i64 noundef 32) #22
  %12 = getelementptr inbounds nuw i8, ptr %5, i64 136
  store ptr %11, ptr %12, align 8, !tbaa !20
  call void @extstore_get_page_data(ptr noundef nonnull %6, ptr noundef nonnull %5) #21
  %13 = load i64, ptr %9, align 8, !tbaa !16
  %.not = icmp eq i64 %13, 0
  br i1 %.not, label %._crit_edge, label %.lr.ph

.lr.ph:                                           ; preds = %8, %.lr.ph
  %indvars.iv = phi i64 [ %indvars.iv.next, %.lr.ph ], [ 0, %8 ]
  %14 = trunc nuw nsw i64 %indvars.iv to i32
  %15 = call i32 (ptr, i64, ptr, ...) @snprintf(ptr noundef nonnull dereferenceable(1) %3, i64 noundef 128, ptr noundef nonnull @.str, i32 noundef %14, ptr noundef nonnull @.str.1) #21
  %16 = load ptr, ptr %12, align 8, !tbaa !20
  %17 = getelementptr inbounds nuw %struct.extstore_page_data, ptr %16, i64 %indvars.iv
  %18 = load i64, ptr %17, align 8, !tbaa !21
  %19 = call i32 (ptr, i64, ptr, ...) @snprintf(ptr noundef nonnull dereferenceable(1) %4, i64 noundef 128, ptr noundef nonnull @.str.2, i64 noundef %18) #21
  %20 = trunc i32 %15 to i16
  call void %0(ptr noundef nonnull %3, i16 noundef zeroext %20, ptr noundef nonnull %4, i32 noundef %19, ptr noundef %1) #21
  %21 = call i32 (ptr, i64, ptr, ...) @snprintf(ptr noundef nonnull dereferenceable(1) %3, i64 noundef 128, ptr noundef nonnull @.str, i32 noundef %14, ptr noundef nonnull @.str.3) #21
  %22 = load ptr, ptr %12, align 8, !tbaa !20
  %23 = getelementptr inbounds nuw %struct.extstore_page_data, ptr %22, i64 %indvars.iv, i32 1
  %24 = load i64, ptr %23, align 8, !tbaa !24
  %25 = call i32 (ptr, i64, ptr, ...) @snprintf(ptr noundef nonnull dereferenceable(1) %4, i64 noundef 128, ptr noundef nonnull @.str.2, i64 noundef %24) #21
  %26 = trunc i32 %21 to i16
  call void %0(ptr noundef nonnull %3, i16 noundef zeroext %26, ptr noundef nonnull %4, i32 noundef %25, ptr noundef %1) #21
  %27 = call i32 (ptr, i64, ptr, ...) @snprintf(ptr noundef nonnull dereferenceable(1) %3, i64 noundef 128, ptr noundef nonnull @.str, i32 noundef %14, ptr noundef nonnull @.str.4) #21
  %28 = load ptr, ptr %12, align 8, !tbaa !20
  %29 = getelementptr inbounds nuw %struct.extstore_page_data, ptr %28, i64 %indvars.iv, i32 2
  %30 = load i32, ptr %29, align 8, !tbaa !25
  %31 = call i32 (ptr, i64, ptr, ...) @snprintf(ptr noundef nonnull dereferenceable(1) %4, i64 noundef 128, ptr noundef nonnull @.str.5, i32 noundef %30) #21
  %32 = trunc i32 %27 to i16
  call void %0(ptr noundef nonnull %3, i16 noundef zeroext %32, ptr noundef nonnull %4, i32 noundef %31, ptr noundef %1) #21
  %33 = call i32 (ptr, i64, ptr, ...) @snprintf(ptr noundef nonnull dereferenceable(1) %3, i64 noundef 128, ptr noundef nonnull @.str, i32 noundef %14, ptr noundef nonnull @.str.6) #21
  %34 = load ptr, ptr %12, align 8, !tbaa !20
  %35 = getelementptr inbounds nuw %struct.extstore_page_data, ptr %34, i64 %indvars.iv, i32 3
  %36 = load i32, ptr %35, align 4, !tbaa !26
  %37 = call i32 (ptr, i64, ptr, ...) @snprintf(ptr noundef nonnull dereferenceable(1) %4, i64 noundef 128, ptr noundef nonnull @.str.5, i32 noundef %36) #21
  %38 = trunc i32 %33 to i16
  call void %0(ptr noundef nonnull %3, i16 noundef zeroext %38, ptr noundef nonnull %4, i32 noundef %37, ptr noundef %1) #21
  %indvars.iv.next = add nuw nsw i64 %indvars.iv, 1
  %39 = load i64, ptr %9, align 8, !tbaa !16
  %40 = icmp ugt i64 %39, %indvars.iv.next
  br i1 %40, label %.lr.ph, label %._crit_edge, !llvm.loop !27

._crit_edge:                                      ; preds = %.lr.ph, %8
  %41 = load ptr, ptr %12, align 8, !tbaa !20
  call void @free(ptr noundef %41) #21
  br label %42

42:                                               ; preds = %2, %._crit_edge
  call void @llvm.lifetime.end.p0(i64 144, ptr nonnull %5) #21
  call void @llvm.lifetime.end.p0(i64 128, ptr nonnull %4) #21
  call void @llvm.lifetime.end.p0(i64 128, ptr nonnull %3) #21
  ret void
}